target datalayout = "e-m:e-p270:32:32-p271:32:32-p272:64:64-i64:64-i128:128-f80:128-n8:16:32:64-S128"
target triple = "x86_64-pc-linux-gnu"

%struct.SDL_GUID = type { [16 x i8] }
%struct.SDL_Joystick = type { i32, ptr, ptr, ptr, %struct.SDL_GUID, i16, i64, i8, i8, i32, ptr, i32, ptr, i32, ptr, i32, ptr, i32, ptr, i32, i32, ptr, i16, i16, i64, i64, i16, i16, i64, i64, i8, i8, i8, i64, i8, i32, i32, i32, i8, i32, ptr, i32, ptr, [3 x [3 x float]], i64, ptr, ptr, i32, i32, ptr }
%struct.joystick_hwdata = type { i32, i32, ptr, ptr, %struct.SDL_GUID, ptr, i8, i8, %struct.ff_effect, i32, ptr, ptr, [767 x i8], [63 x i8], [767 x i8], [63 x i8], i8, i8, i8, ptr, ptr, [63 x %struct.axis_correct], [3 x float], [3 x float], [3 x float], [3 x float], i64, i32, i8, i8, i8, i8, i8, [4 x i32], [4 x i8], [4 x %struct.hat_axis_correct], i8, i8 }
%struct.ff_effect = type { i16, i16, i16, %struct.ff_trigger, %struct.ff_replay, %union.anon }
%struct.ff_trigger = type { i16, i16 }
%struct.ff_replay = type { i16, i16 }
%union.anon = type { %struct.ff_periodic_effect }
%struct.ff_periodic_effect = type { i16, i16, i16, i16, i16, %struct.ff_envelope, i32, ptr }
%struct.ff_envelope = type { i16, i16, i16, i16 }
%struct.axis_correct = type { i8, [3 x i32], i32, i32, float }
%struct.hat_axis_correct = type { i8, [2 x i32], [2 x i32] }
%struct.input_absinfo = type { i32, i32, i32, i32, i32, i32 }

; Function Attrs: nounwind uwtable
define internal void @PollAllSensors(i64 noundef %0, ptr noundef %1) #0 {
  %3 = alloca i64, align 8
  %4 = alloca ptr, align 8
  %5 = alloca %struct.input_absinfo, align 4
  %6 = alloca i32, align 4
  %7 = alloca [3 x float], align 4
  %8 = alloca [3 x float], align 4
  store i64 %0, ptr %3, align 8
  store ptr %1, ptr %4, align 8
  call void @llvm.lifetime.start.p0(i64 24, ptr %5) #11
  call void @llvm.lifetime.start.p0(i64 4, ptr %6) #11
  call void @SDL_AssertJoysticksLocked()
  br label %9

9:                                                ; preds = %2
  br label %10

10:                                               ; preds = %9
  br label %11

11:                                               ; preds = %10
  %12 = load ptr, ptr %4, align 8
  %13 = getelementptr inbounds nuw %struct.SDL_Joystick, ptr %12, i32 0, i32 46
  %14 = load ptr, ptr %13, align 8
  %15 = getelementptr inbounds nuw %struct.joystick_hwdata, ptr %14, i32 0, i32 17
  %16 = load i8, ptr %15, align 1, !range !5, !noundef !6
  %17 = trunc i8 %16 to i1
  br i1 %17, label %18, label %68

18:                                               ; preds = %11
  call void @llvm.lifetime.start.p0(i64 12, ptr %7) #11
  call void @llvm.memset.p0.i64(ptr align 4 %7, i8 0, i64 12, i1 false)
  store i32 0, ptr %6, align 4
  br label %19

19:                                               ; preds = %55, %18
  %20 = load i32, ptr %6, align 4
  %21 = icmp slt i32 %20, 3
  br i1 %21, label %22, label %58

22:                                               ; preds = %19
  %23 = load ptr, ptr %4, align 8
  %24 = getelementptr inbounds nuw %struct.SDL_Joystick, ptr %23, i32 0, i32 46
  %25 = load ptr, ptr %24, align 8
  %26 = getelementptr inbounds nuw %struct.joystick_hwdata, ptr %25, i32 0, i32 1
  %27 = load i32, ptr %26, align 4
  %28 = load i32, ptr %6, align 4
  %29 = add nsw i32 3, %28
  %30 = add nsw i32 64, %29
  %31 = shl i32 %30, 0
  %32 = or i32 -2147465984, %31
  %33 = zext i32 %32 to i64
  %34 = or i64 %33, 1572864
  %35 = call i32 (i32, i64, ...) @ioctl(i32 noundef %27, i64 noundef %34, ptr noundef %5) #11
  %36 = icmp sge i32 %35, 0
  br i1 %36, label %37, label %54

37:                                               ; preds = %22
  %38 = getelementptr inbounds nuw %struct.input_absinfo, ptr %5, i32 0, i32 0
  %39 = load i32, ptr %38, align 4
  %40 = sitofp i32 %39 to float
  %41 = fmul float %40, 0x3F91DF46A0000000
  %42 = load ptr, ptr %4, align 8
  %43 = getelementptr inbounds nuw %struct.SDL_Joystick, ptr %42, i32 0, i32 46
  %44 = load ptr, ptr %43, align 8
  %45 = getelementptr inbounds nuw %struct.joystick_hwdata, ptr %44, i32 0, i32 23
  %46 = load i32, ptr %6, align 4
  %47 = sext i32 %46 to i64
  %48 = getelementptr inbounds [3 x float], ptr %45, i64 0, i64 %47
  %49 = load float, ptr %48, align 4
  %50 = fdiv float %41, %49
  %51 = load i32, ptr %6, align 4
  %52 = sext i32 %51 to i64
  %53 = getelementptr inbounds [3 x float], ptr %7, i64 0, i64 %52
  store float %50, ptr %53, align 4
  br label %54

54:                                               ; preds = %37, %22
  br label %55

55:                                               ; preds = %54
  %56 = load i32, ptr %6, align 4
  %57 = add nsw i32 %56, 1
  store i32 %57, ptr %6, align 4
  br label %19, !llvm.loop !42

58:                                               ; preds = %19
  %59 = load i64, ptr %3, align 8
  %60 = load ptr, ptr %4, align 8
  %61 = load ptr, ptr %4, align 8
  %62 = getelementptr inbounds nuw %struct.SDL_Joystick, ptr %61, i32 0, i32 46
  %63 = load ptr, ptr %62, align 8
  %64 = getelementptr inbounds nuw %struct.joystick_hwdata, ptr %63, i32 0, i32 26
  %65 = load i64, ptr %64, align 8
  %66 = mul i64 %65, 1000
  %67 = getelementptr inbounds [3 x float], ptr %7, i64 0, i64 0
  call void @SDL_SendJoystickSensor(i64 noundef %59, ptr noundef %60, i32 noundef 2, i64 noundef %66, ptr noundef %67, i32 noundef 3)
  call void @llvm.lifetime.end.p0(i64 12, ptr %7) #11
  br label %68

68:                                               ; preds = %58, %11
  %69 = load ptr, ptr %4, align 8
  %70 = getelementptr inbounds nuw %struct.SDL_Joystick, ptr %69, i32 0, i32 46
  %71 = load ptr, ptr %70, align 8
  %72 = getelementptr inbounds nuw %struct.joystick_hwdata, ptr %71, i32 0, i32 16
  %73 = load i8, ptr %72, align 4, !range !5, !noundef !6
  %74 = trunc i8 %73 to i1
  br i1 %74, label %75, label %125

75:                                               ; preds = %68
  call void @llvm.lifetime.start.p0(i64 12, ptr %8) #11
  call void @llvm.memset.p0.i64(ptr align 4 %8, i8 0, i64 12, i1 false)
  store i32 0, ptr %6, align 4
  br label %76

76:                                               ; preds = %112, %75
  %77 = load i32, ptr %6, align 4
  %78 = icmp slt i32 %77, 3
  br i1 %78, label %79, label %115

79:                                               ; preds = %76
  %80 = load ptr, ptr %4, align 8
  %81 = getelementptr inbounds nuw %struct.SDL_Joystick, ptr %80, i32 0, i32 46
  %82 = load ptr, ptr %81, align 8
  %83 = getelementptr inbounds nuw %struct.joystick_hwdata, ptr %82, i32 0, i32 1
  %84 = load i32, ptr %83, align 4
  %85 = load i32, ptr %6, align 4
  %86 = add nsw i32 0, %85
  %87 = add nsw i32 64, %86
  %88 = shl i32 %87, 0
  %89 = or i32 -2147465984, %88
  %90 = zext i32 %89 to i64
  %91 = or i64 %90, 1572864
  %92 = call i32 (i32, i64, ...) @ioctl(i32 noundef %84, i64 noundef %91, ptr noundef %5) #11
  %93 = icmp sge i32 %92, 0
  br i1 %93, label %94, label %111

94:                                               ; preds = %79
  %95 = getelementptr inbounds nuw %struct.input_absinfo, ptr %5, i32 0, i32 0
  %96 = load i32, ptr %95, align 4
  %97 = sitofp i32 %96 to float
  %98 = fmul float %97, 0x40239D0140000000
  %99 = load ptr, ptr %4, align 8
  %100 = getelementptr inbounds nuw %struct.SDL_Joystick, ptr %99, i32 0, i32 46
  %101 = load ptr, ptr %100, align 8
  %102 = getelementptr inbounds nuw %struct.joystick_hwdata, ptr %101, i32 0, i32 22
  %103 = load i32, ptr %6, align 4
  %104 = sext i32 %103 to i64
  %105 = getelementptr inbounds [3 x float], ptr %102, i64 0, i64 %104
  %106 = load float, ptr %105, align 4
  %107 = fdiv float %98, %106
  %108 = load i32, ptr %6, align 4
  %109 = sext i32 %108 to i64
  %110 = getelementptr inbounds [3 x float], ptr %8, i64 0, i64 %109
  store float %107, ptr %110, align 4
  br label %111

111:                                              ; preds = %94, %79
  br label %112

112:                                              ; preds = %111
  %113 = load i32, ptr %6, align 4
  %114 = add nsw i32 %113, 1
  store i32 %114, ptr %6, align 4
  br label %76, !llvm.loop !43

115:                                              ; preds = %76
  %116 = load i64, ptr %3, align 8
  %117 = load ptr, ptr %4, align 8
  %118 = load ptr, ptr %4, align 8
  %119 = getelementptr inbounds nuw %struct.SDL_Joystick, ptr %118, i32 0, i32 46
  %120 = load ptr, ptr %119, align 8
  %121 = getelementptr inbounds nuw %struct.joystick_hwdata, ptr %120, i32 0, i32 26
  %122 = load i64, ptr %121, align 8
  %123 = mul i64 %122, 1000
  %124 = getelementptr inbounds [3 x float], ptr %8, i64 0, i64 0
  call void @SDL_SendJoystickSensor(i64 noundef %116, ptr noundef %117, i32 noundef 1, i64 noundef %123, ptr noundef %124, i32 noundef 3)
  call void @llvm.lifetime.end.p0(i64 12, ptr %8) #11
  br label %125

125:                                              ; preds = %115, %68
  call void @llvm.lifetime.end.p0(i64 4, ptr %6) #11
  call void @llvm.lifetime.end.p0(i64 24, ptr %5) #11
  ret void
}