; Function Attrs: nounwind uwtable
define internal fastcc void @PollAllSensors(i64 noundef %0, ptr noundef %1) unnamed_addr #0 {
  %3 = alloca %struct.input_absinfo, align 4
  %4 = alloca [3 x float], align 4
  %5 = alloca [3 x float], align 4
  call void @llvm.lifetime.start.p0(i64 24, ptr nonnull %3) #18
  tail call void @SDL_AssertJoysticksLocked() #18
  %6 = getelementptr inbounds nuw i8, ptr %1, i64 328
  %7 = load ptr, ptr %6, align 8
  %8 = getelementptr inbounds nuw i8, ptr %7, i64 1789
  %9 = load i8, ptr %8, align 1, !range !5, !noundef !6
  %10 = trunc nuw i8 %9 to i1
  br i1 %10, label %11, label %35

11:                                               ; preds = %2
  call void @llvm.lifetime.start.p0(i64 12, ptr nonnull %4) #18
  call void @llvm.memset.p0.i64(ptr noundef nonnull align 4 dereferenceable(12) %4, i8 0, i64 12, i1 false)
  br label %12

12:                                               ; preds = %11, %29
  %indvars.iv = phi i64 [ 0, %11 ], [ %indvars.iv.next, %29 ]
  %13 = load ptr, ptr %6, align 8
  %14 = getelementptr inbounds nuw i8, ptr %13, i64 4
  %15 = load i32, ptr %14, align 4
  %16 = add nuw nsw i64 %indvars.iv, 2149074243
  %17 = call i32 (i32, i64, ...) @ioctl(i32 noundef %15, i64 noundef %16, ptr noundef nonnull %3) #18
  %18 = icmp sgt i32 %17, -1
  br i1 %18, label %19, label %29

19:                                               ; preds = %12
  %20 = load i32, ptr %3, align 4
  %21 = sitofp i32 %20 to float
  %22 = fmul float %21, 0x3F91DF46A0000000
  %23 = load ptr, ptr %6, align 8
  %24 = getelementptr inbounds nuw i8, ptr %23, i64 3584
  %25 = getelementptr inbounds nuw [3 x float], ptr %24, i64 0, i64 %indvars.iv
  %26 = load float, ptr %25, align 4
  %27 = fdiv float %22, %26
  %28 = getelementptr inbounds nuw [3 x float], ptr %4, i64 0, i64 %indvars.iv
  store float %27, ptr %28, align 4
  br label %29

29:                                               ; preds = %12, %19
  %indvars.iv.next = add nuw nsw i64 %indvars.iv, 1
  %exitcond.not = icmp eq i64 %indvars.iv.next, 3
  br i1 %exitcond.not, label %30, label %12, !llvm.loop !41

30:                                               ; preds = %29
  %31 = load ptr, ptr %6, align 8
  %32 = getelementptr inbounds nuw i8, ptr %31, i64 3624
  %33 = load i64, ptr %32, align 8
  %34 = mul i64 %33, 1000
  call void @SDL_SendJoystickSensor(i64 noundef %0, ptr noundef nonnull %1, i32 noundef 2, i64 noundef %34, ptr noundef nonnull %4, i32 noundef 3) #18
  call void @llvm.lifetime.end.p0(i64 12, ptr nonnull %4) #18
  %.pre = load ptr, ptr %6, align 8
  br label %35

35:                                               ; preds = %30, %2
  %36 = phi ptr [ %.pre, %30 ], [ %7, %2 ]
  %37 = getelementptr inbounds nuw i8, ptr %36, i64 1788
  %38 = load i8, ptr %37, align 4, !range !5, !noundef !6
  %39 = trunc nuw i8 %38 to i1
  br i1 %39, label %40, label %64

40:                                               ; preds = %35
  call void @llvm.lifetime.start.p0(i64 12, ptr nonnull %5) #18
  call void @llvm.memset.p0.i64(ptr noundef nonnull align 4 dereferenceable(12) %5, i8 0, i64 12, i1 false)
  br label %41

41:                                               ; preds = %40, %58
  %indvars.iv25 = phi i64 [ 0, %40 ], [ %indvars.iv.next26, %58 ]
  %42 = load ptr, ptr %6, align 8
  %43 = getelementptr inbounds nuw i8, ptr %42, i64 4
  %44 = load i32, ptr %43, align 4
  %45 = or disjoint i64 %indvars.iv25, 2149074240
  %46 = call i32 (i32, i64, ...) @ioctl(i32 noundef %44, i64 noundef %45, ptr noundef nonnull %3) #18
  %47 = icmp sgt i32 %46, -1
  br i1 %47, label %48, label %58

48:                                               ; preds = %41
  %49 = load i32, ptr %3, align 4
  %50 = sitofp i32 %49 to float
  %51 = fmul float %50, 0x40239D0140000000
  %52 = load ptr, ptr %6, align 8
  %53 = getelementptr inbounds nuw i8, ptr %52, i64 3572
  %54 = getelementptr inbounds nuw [3 x float], ptr %53, i64 0, i64 %indvars.iv25
  %55 = load float, ptr %54, align 4
  %56 = fdiv float %51, %55
  %57 = getelementptr inbounds nuw [3 x float], ptr %5, i64 0, i64 %indvars.iv25
  store float %56, ptr %57, align 4
  br label %58

58:                                               ; preds = %41, %48
  %indvars.iv.next26 = add nuw nsw i64 %indvars.iv25, 1
  %exitcond28.not = icmp eq i64 %indvars.iv.next26, 3
  br i1 %exitcond28.not, label %59, label %41, !llvm.loop !42

59:                                               ; preds = %58
  %60 = load ptr, ptr %6, align 8
  %61 = getelementptr inbounds nuw i8, ptr %60, i64 3624
  %62 = load i64, ptr %61, align 8
  %63 = mul i64 %62, 1000
  call void @SDL_SendJoystickSensor(i64 noundef %0, ptr noundef nonnull %1, i32 noundef 1, i64 noundef %63, ptr noundef nonnull %5, i32 noundef 3) #18
  call void @llvm.lifetime.end.p0(i64 12, ptr nonnull %5) #18
  br label %64

64:                                               ; preds = %59, %35
  call void @llvm.lifetime.end.p0(i64 24, ptr nonnull %3) #18
  ret void
}